target datalayout = "e-m:e-p270:32:32-p271:32:32-p272:64:64-i64:64-i128:128-f80:128-n8:16:32:64-S128"
target triple = "x86_64-pc-linux-gnu"

%struct.algo_time_t = type { i32, i32 }

@HUFv05_decompress.decompress = internal constant [3 x ptr] [ptr @HUFv05_decompress4X2, ptr @HUFv05_decompress4X4, ptr null], align 16

; Function Attrs: nounwind uwtable
define i64 @HUFv05_decompress(ptr noundef %0, i64 noundef %1, ptr noundef %2, i64 noundef %3) #0 {
  %5 = alloca i64, align 8
  %6 = alloca ptr, align 8
  %7 = alloca i64, align 8
  %8 = alloca ptr, align 8
  %9 = alloca i64, align 8
  %10 = alloca i32, align 4
  %11 = alloca i32, align 4
  %12 = alloca [3 x i32], align 4
  %13 = alloca i32, align 4
  %14 = alloca i32, align 4
  %15 = alloca i32, align 4
  store ptr %0, ptr %6, align 8, !tbaa !12
  store i64 %1, ptr %7, align 8, !tbaa !29
  store ptr %2, ptr %8, align 8, !tbaa !12
  store i64 %3, ptr %9, align 8, !tbaa !29
  call void @llvm.lifetime.start.p0(i64 4, ptr %10) #11
  call void @llvm.lifetime.start.p0(i64 4, ptr %11) #11
  %16 = load i64, ptr %7, align 8, !tbaa !29
  %17 = lshr i64 %16, 8
  %18 = trunc i64 %17 to i32
  store i32 %18, ptr %11, align 4, !tbaa !3
  call void @llvm.lifetime.start.p0(i64 12, ptr %12) #11
  call void @llvm.lifetime.start.p0(i64 4, ptr %13) #11
  store i32 0, ptr %13, align 4, !tbaa !3
  call void @llvm.lifetime.start.p0(i64 4, ptr %14) #11
  %19 = load i64, ptr %7, align 8, !tbaa !29
  %20 = icmp eq i64 %19, 0
  br i1 %20, label %21, label %22

21:                                               ; preds = %4
  store i64 -70, ptr %5, align 8
  store i32 1, ptr %15, align 4
  br label %102

22:                                               ; preds = %4
  %23 = load i64, ptr %9, align 8, !tbaa !29
  %24 = load i64, ptr %7, align 8, !tbaa !29
  %25 = icmp uge i64 %23, %24
  br i1 %25, label %26, label %27

26:                                               ; preds = %22
  store i64 -20, ptr %5, align 8
  store i32 1, ptr %15, align 4
  br label %102

27:                                               ; preds = %22
  %28 = load i64, ptr %9, align 8, !tbaa !29
  %29 = icmp eq i64 %28, 1
  br i1 %29, label %30, label %38

30:                                               ; preds = %27
  %31 = load ptr, ptr %6, align 8, !tbaa !12
  %32 = load ptr, ptr %8, align 8, !tbaa !12
  %33 = load i8, ptr %32, align 1, !tbaa !24
  %34 = zext i8 %33 to i32
  %35 = trunc i32 %34 to i8
  %36 = load i64, ptr %7, align 8, !tbaa !29
  call void @llvm.memset.p0.i64(ptr align 1 %31, i8 %35, i64 %36, i1 false)
  %37 = load i64, ptr %7, align 8, !tbaa !29
  store i64 %37, ptr %5, align 8
  store i32 1, ptr %15, align 4
  br label %102

38:                                               ; preds = %27
  %39 = load i64, ptr %9, align 8, !tbaa !29
  %40 = mul i64 %39, 16
  %41 = load i64, ptr %7, align 8, !tbaa !29
  %42 = udiv i64 %40, %41
  %43 = trunc i64 %42 to i32
  store i32 %43, ptr %10, align 4, !tbaa !3
  store i32 0, ptr %14, align 4, !tbaa !3
  br label %44

44:                                               ; preds = %70, %38
  %45 = load i32, ptr %14, align 4, !tbaa !3
  %46 = icmp slt i32 %45, 3
  br i1 %46, label %47, label %73

47:                                               ; preds = %44
  %48 = load i32, ptr %10, align 4, !tbaa !3
  %49 = zext i32 %48 to i64
  %50 = getelementptr inbounds nuw [16 x [3 x %struct.algo_time_t]], ptr @algoTime, i64 0, i64 %49
  %51 = load i32, ptr %14, align 4, !tbaa !3
  %52 = sext i32 %51 to i64
  %53 = getelementptr inbounds [3 x %struct.algo_time_t], ptr %50, i64 0, i64 %52
  %54 = getelementptr inbounds nuw %struct.algo_time_t, ptr %53, i32 0, i32 0
  %55 = load i32, ptr %54, align 8, !tbaa !71
  %56 = load i32, ptr %10, align 4, !tbaa !3
  %57 = zext i32 %56 to i64
  %58 = getelementptr inbounds nuw [16 x [3 x %struct.algo_time_t]], ptr @algoTime, i64 0, i64 %57
  %59 = load i32, ptr %14, align 4, !tbaa !3
  %60 = sext i32 %59 to i64
  %61 = getelementptr inbounds [3 x %struct.algo_time_t], ptr %58, i64 0, i64 %60
  %62 = getelementptr inbounds nuw %struct.algo_time_t, ptr %61, i32 0, i32 1
  %63 = load i32, ptr %62, align 4, !tbaa !73
  %64 = load i32, ptr %11, align 4, !tbaa !3
  %65 = mul i32 %63, %64
  %66 = add i32 %55, %65
  %67 = load i32, ptr %14, align 4, !tbaa !3
  %68 = sext i32 %67 to i64
  %69 = getelementptr inbounds [3 x i32], ptr %12, i64 0, i64 %68
  store i32 %66, ptr %69, align 4, !tbaa !3
  br label %70

70:                                               ; preds = %47
  %71 = load i32, ptr %14, align 4, !tbaa !3
  %72 = add nsw i32 %71, 1
  store i32 %72, ptr %14, align 4, !tbaa !3
  br label %44, !llvm.loop !74

73:                                               ; preds = %44
  %74 = getelementptr inbounds [3 x i32], ptr %12, i64 0, i64 1
  %75 = load i32, ptr %74, align 4, !tbaa !3
  %76 = lshr i32 %75, 4
  %77 = getelementptr inbounds [3 x i32], ptr %12, i64 0, i64 1
  %78 = load i32, ptr %77, align 4, !tbaa !3
  %79 = add i32 %78, %76
  store i32 %79, ptr %77, align 4, !tbaa !3
  %80 = getelementptr inbounds [3 x i32], ptr %12, i64 0, i64 2
  %81 = load i32, ptr %80, align 4, !tbaa !3
  %82 = lshr i32 %81, 3
  %83 = getelementptr inbounds [3 x i32], ptr %12, i64 0, i64 2
  %84 = load i32, ptr %83, align 4, !tbaa !3
  %85 = add i32 %84, %82
  store i32 %85, ptr %83, align 4, !tbaa !3
  %86 = getelementptr inbounds [3 x i32], ptr %12, i64 0, i64 1
  %87 = load i32, ptr %86, align 4, !tbaa !3
  %88 = getelementptr inbounds [3 x i32], ptr %12, i64 0, i64 0
  %89 = load i32, ptr %88, align 4, !tbaa !3
  %90 = icmp ult i32 %87, %89
  br i1 %90, label %91, label %92

91:                                               ; preds = %73
  store i32 1, ptr %13, align 4, !tbaa !3
  br label %92

92:                                               ; preds = %91, %73
  %93 = load i32, ptr %13, align 4, !tbaa !3
  %94 = zext i32 %93 to i64
  %95 = getelementptr inbounds nuw [3 x ptr], ptr @HUFv05_decompress.decompress, i64 0, i64 %94
  %96 = load ptr, ptr %95, align 8, !tbaa !12
  %97 = load ptr, ptr %6, align 8, !tbaa !12
  %98 = load i64, ptr %7, align 8, !tbaa !29
  %99 = load ptr, ptr %8, align 8, !tbaa !12
  %100 = load i64, ptr %9, align 8, !tbaa !29
  %101 = call i64 %96(ptr noundef %97, i64 noundef %98, ptr noundef %99, i64 noundef %100)
  store i64 %101, ptr %5, align 8
  store i32 1, ptr %15, align 4
  br label %102

102:                                              ; preds = %92, %30, %26, %21
  call void @llvm.lifetime.end.p0(i64 4, ptr %14) #11
  call void @llvm.lifetime.end.p0(i64 4, ptr %13) #11
  call void @llvm.lifetime.end.p0(i64 12, ptr %12) #11
  call void @llvm.lifetime.end.p0(i64 4, ptr %11) #11
  call void @llvm.lifetime.end.p0(i64 4, ptr %10) #11
  %103 = load i64, ptr %5, align 8
  ret i64 %103
}